target datalayout = "e-m:e-p270:32:32-p271:32:32-p272:64:64-i64:64-i128:128-f80:128-n8:16:32:64-S128"
target triple = "x86_64-pc-linux-gnu"

%struct.xml_encoding = type { ptr, ptr, ptr }
%struct._zend_executor_globals = type { %struct._zval_struct, %struct._zval_struct, [32 x ptr], ptr, ptr, %struct._zend_array, %struct._zend_array, ptr, i32, i32, ptr, ptr, ptr, ptr, ptr, ptr, i64, ptr, ptr, i32, i32, i64, i32, i32, i32, i8, i8, %struct.zend_atomic_bool_s, %struct.zend_atomic_bool_s, ptr, i64, ptr, ptr, %struct._zend_array, %struct._zend_array, i32, i8, %struct._zval_struct, %struct._zval_struct, %struct._zend_stack, %struct._zend_stack, %struct._zend_stack, ptr, i32, i32, i64, ptr, ptr, ptr, %struct._zend_objects_store, ptr, ptr, ptr, [3 x %struct._zend_op], ptr, i8, i8, i64, i32, i32, ptr, [16 x %struct._HashTableIterator], ptr, %union._zend_function, %struct._zend_op, %struct._zend_array, i64, %struct.zend_get_gc_buffer, ptr, ptr, ptr, i64, i8, i32, ptr, ptr, i64, %struct._zend_call_stack, i64, i64, [6 x ptr] }
%struct.zend_atomic_bool_s = type { i8 }
%struct._zval_struct = type { %union._zend_value, %union.anon.9, %union.anon.12 }
%union._zend_value = type { i64 }
%union.anon.9 = type { i32 }
%union.anon.12 = type { i32 }
%struct._zend_stack = type { i32, i32, i32, ptr }
%struct._zend_objects_store = type { ptr, i32, i32, i32 }
%struct._HashTableIterator = type { ptr, i32, i32 }
%union._zend_function = type { %struct._zend_op_array }
%struct._zend_op_array = type { i8, [3 x i8], i32, ptr, ptr, ptr, i32, i32, ptr, ptr, ptr, ptr, i32, i32, i32, i32, ptr, ptr, ptr, ptr, ptr, i32, i32, ptr, ptr, ptr, i32, i32, i32, i32, ptr, ptr, [6 x ptr] }
%struct._zend_op = type { ptr, %union._znode_op, %union._znode_op, %union._znode_op, i32, i32, i8, i8, i8, i8 }
%union._znode_op = type { i32 }
%struct._zend_array = type { %struct._zend_refcounted_h, %union.anon.1, i32, %union.anon.2, i32, i32, i32, i32, i64, ptr }
%struct._zend_refcounted_h = type { i32, %union.anon.0 }
%union.anon.0 = type { i32 }
%union.anon.1 = type { i32 }
%union.anon.2 = type { ptr }
%struct.zend_get_gc_buffer = type { ptr, ptr, ptr }
%struct._zend_call_stack = type { ptr, i64 }
%struct._zend_fcall_info_cache = type { ptr, ptr, ptr, ptr, ptr }
%struct.xml_parser = type { ptr, ptr, %struct._zval_struct, ptr, %struct._zend_fcall_info_cache, %struct._zend_fcall_info_cache, %struct._zend_fcall_info_cache, %struct._zend_fcall_info_cache, %struct._zend_fcall_info_cache, %struct._zend_fcall_info_cache, %struct._zend_fcall_info_cache, %struct._zend_fcall_info_cache, %struct._zend_fcall_info_cache, %struct._zend_fcall_info_cache, %struct._zval_struct, %struct._zval_struct, i32, i32, i32, ptr, ptr, i8, i8, i8, i8, i8, ptr, %struct._zend_object }
%struct._zend_object = type { %struct._zend_refcounted_h, i32, ptr, ptr, ptr, [1 x %struct._zval_struct] }
%struct._zend_string = type { %struct._zend_refcounted_h, i64, i64, [1 x i8] }
%struct._zend_execute_data = type { ptr, ptr, ptr, ptr, %struct._zval_struct, ptr, ptr, ptr, ptr }

@xml_parser_ce = internal global ptr null, align 8
@executor_globals = external global %struct._zend_executor_globals, align 8
@.str.43 = private unnamed_addr constant [4 x i8] c"Olz\00", align 1
@.str.44 = private unnamed_addr constant [63 x i8] c"Argument #3 ($value) must be of type string|int|bool, %s given\00", align 1
@.str.45 = private unnamed_addr constant [57 x i8] c"Cannot change option XML_OPTION_PARSE_HUGE while parsing\00", align 1
@.str.46 = private unnamed_addr constant [82 x i8] c"Argument #3 ($value) must be between 0 and %d for option XML_OPTION_SKIP_TAGSTART\00", align 1
@.str.47 = private unnamed_addr constant [35 x i8] c"is not a supported target encoding\00", align 1
@.str.48 = private unnamed_addr constant [32 x i8] c"must be a XML_OPTION_* constant\00", align 1

; Function Attrs: nounwind uwtable
define internal ptr @xml_get_encoding(ptr noundef %0) #0 {
  %2 = alloca ptr, align 8
  %3 = alloca ptr, align 8
  %4 = alloca ptr, align 8
  store ptr %0, ptr %3, align 8
  store ptr @xml_encodings, ptr %4, align 8
  br label %5

5:                                                ; preds = %24, %1
  %6 = load ptr, ptr %4, align 8
  %7 = icmp ne ptr %6, null
  br i1 %7, label %8, label %13

8:                                                ; preds = %5
  %9 = load ptr, ptr %4, align 8
  %10 = getelementptr inbounds %struct.xml_encoding, ptr %9, i32 0, i32 0
  %11 = load ptr, ptr %10, align 8
  %12 = icmp ne ptr %11, null
  br label %13

13:                                               ; preds = %8, %5
  %14 = phi i1 [ false, %5 ], [ %12, %8 ]
  br i1 %14, label %15, label %27

15:                                               ; preds = %13
  %16 = load ptr, ptr %3, align 8
  %17 = load ptr, ptr %4, align 8
  %18 = getelementptr inbounds %struct.xml_encoding, ptr %17, i32 0, i32 0
  %19 = load ptr, ptr %18, align 8
  %20 = call i32 @strcasecmp(ptr noundef %16, ptr noundef %19) #14
  %21 = icmp eq i32 %20, 0
  br i1 %21, label %22, label %24

22:                                               ; preds = %15
  %23 = load ptr, ptr %4, align 8
  store ptr %23, ptr %2, align 8
  br label %28

24:                                               ; preds = %15
  %25 = load ptr, ptr %4, align 8
  %26 = getelementptr inbounds %struct.xml_encoding, ptr %25, i32 1
  store ptr %26, ptr %4, align 8
  br label %5

27:                                               ; preds = %13
  store ptr null, ptr %2, align 8
  br label %28

28:                                               ; preds = %27, %22
  %29 = load ptr, ptr %2, align 8
  ret ptr %29
}

; Function Attrs: nounwind uwtable
define internal ptr @xml_parser_from_obj(ptr noundef %0) #0 {
  %2 = alloca ptr, align 8
  store ptr %0, ptr %2, align 8
  %3 = load ptr, ptr %2, align 8
  %4 = getelementptr inbounds i8, ptr %3, i64 -520
  ret ptr %4
}

; Function Attrs: nounwind uwtable
define hidden void @zif_xml_parser_set_option(ptr noundef %0, ptr noundef %1) #0 {
  %3 = alloca ptr, align 8
  %4 = alloca i1, align 1
  %5 = alloca ptr, align 8
  %6 = alloca ptr, align 8
  %7 = alloca ptr, align 8
  %8 = alloca ptr, align 8
  %9 = alloca ptr, align 8
  %10 = alloca ptr, align 8
  %11 = alloca ptr, align 8
  %12 = alloca ptr, align 8
  %13 = alloca ptr, align 8
  %14 = alloca ptr, align 8
  %15 = alloca ptr, align 8
  %16 = alloca i64, align 8
  %17 = alloca ptr, align 8
  %18 = alloca ptr, align 8
  store ptr %0, ptr %12, align 8
  store ptr %1, ptr %13, align 8
  %19 = load ptr, ptr %12, align 8
  %20 = getelementptr inbounds %struct._zend_execute_data, ptr %19, i32 0, i32 4
  %21 = getelementptr inbounds %struct._zval_struct, ptr %20, i32 0, i32 2
  %22 = load i32, ptr %21, align 4
  %23 = load ptr, ptr @xml_parser_ce, align 8
  %24 = call i32 (i32, ptr, ...) @zend_parse_parameters(i32 noundef %22, ptr noundef @.str.43, ptr noundef %15, ptr noundef %23, ptr noundef %16, ptr noundef %17)
  %25 = icmp eq i32 %24, -1
  br i1 %25, label %26, label %31

26:                                               ; preds = %2
  br label %27

27:                                               ; preds = %26
  %28 = load ptr, ptr getelementptr inbounds (%struct._zend_executor_globals, ptr @executor_globals, i32 0, i32 50), align 8
  %29 = icmp ne ptr %28, null
  call void @llvm.assume(i1 %29)
  br label %187

30:                                               ; No predecessors!
  br label %31

31:                                               ; preds = %30, %2
  %32 = load ptr, ptr %17, align 8
  store ptr %32, ptr %8, align 8
  %33 = load ptr, ptr %8, align 8
  %34 = getelementptr inbounds %struct._zval_struct, ptr %33, i32 0, i32 1
  %35 = load i8, ptr %34, align 8
  %36 = zext i8 %35 to i32
  %37 = icmp ne i32 %36, 2
  br i1 %37, label %38, label %62

38:                                               ; preds = %31
  %39 = load ptr, ptr %17, align 8
  store ptr %39, ptr %9, align 8
  %40 = load ptr, ptr %9, align 8
  %41 = getelementptr inbounds %struct._zval_struct, ptr %40, i32 0, i32 1
  %42 = load i8, ptr %41, align 8
  %43 = zext i8 %42 to i32
  %44 = icmp ne i32 %43, 3
  br i1 %44, label %45, label %62

45:                                               ; preds = %38
  %46 = load ptr, ptr %17, align 8
  store ptr %46, ptr %10, align 8
  %47 = load ptr, ptr %10, align 8
  %48 = getelementptr inbounds %struct._zval_struct, ptr %47, i32 0, i32 1
  %49 = load i8, ptr %48, align 8
  %50 = zext i8 %49 to i32
  %51 = icmp ne i32 %50, 4
  br i1 %51, label %52, label %62

52:                                               ; preds = %45
  %53 = load ptr, ptr %17, align 8
  store ptr %53, ptr %11, align 8
  %54 = load ptr, ptr %11, align 8
  %55 = getelementptr inbounds %struct._zval_struct, ptr %54, i32 0, i32 1
  %56 = load i8, ptr %55, align 8
  %57 = zext i8 %56 to i32
  %58 = icmp ne i32 %57, 6
  br i1 %58, label %59, label %62

59:                                               ; preds = %52
  %60 = load ptr, ptr %17, align 8
  %61 = call ptr @zend_zval_type_name(ptr noundef %60)
  call void (ptr, i32, ptr, ...) @php_error_docref(ptr noundef null, i32 noundef 2, ptr noundef @.str.44, ptr noundef %61)
  br label %62

62:                                               ; preds = %59, %52, %45, %38, %31
  %63 = load ptr, ptr %15, align 8
  %64 = getelementptr inbounds %struct._zval_struct, ptr %63, i32 0, i32 0
  %65 = load ptr, ptr %64, align 8
  %66 = call ptr @xml_parser_from_obj(ptr noundef %65)
  store ptr %66, ptr %14, align 8
  %67 = load i64, ptr %16, align 8
  switch i64 %67, label %176 [
    i64 1, label %68
    i64 4, label %75
    i64 5, label %82
    i64 3, label %104
    i64 2, label %137
  ]

68:                                               ; preds = %62
  %69 = load ptr, ptr %17, align 8
  %70 = call i32 @zend_is_true(ptr noundef %69)
  %71 = icmp ne i32 %70, 0
  %72 = load ptr, ptr %14, align 8
  %73 = getelementptr inbounds %struct.xml_parser, ptr %72, i32 0, i32 25
  %74 = zext i1 %71 to i8
  store i8 %74, ptr %73, align 4
  br label %181

75:                                               ; preds = %62
  %76 = load ptr, ptr %17, align 8
  %77 = call i32 @zend_is_true(ptr noundef %76)
  %78 = icmp ne i32 %77, 0
  %79 = load ptr, ptr %14, align 8
  %80 = getelementptr inbounds %struct.xml_parser, ptr %79, i32 0, i32 22
  %81 = zext i1 %78 to i8
  store i8 %81, ptr %80, align 1
  br label %181

82:                                               ; preds = %62
  %83 = load ptr, ptr %14, align 8
  %84 = getelementptr inbounds %struct.xml_parser, ptr %83, i32 0, i32 23
  %85 = load i8, ptr %84, align 2
  %86 = trunc i8 %85 to i1
  %87 = xor i1 %86, true
  %88 = xor i1 %87, true
  %89 = zext i1 %88 to i32
  %90 = sext i32 %89 to i64
  %91 = icmp ne i64 %90, 0
  br i1 %91, label %92, label %97

92:                                               ; preds = %82
  call void (ptr, ptr, ...) @zend_throw_error(ptr noundef null, ptr noundef @.str.45)
  br label %93

93:                                               ; preds = %92
  %94 = load ptr, ptr getelementptr inbounds (%struct._zend_executor_globals, ptr @executor_globals, i32 0, i32 50), align 8
  %95 = icmp ne ptr %94, null
  call void @llvm.assume(i1 %95)
  br label %187

96:                                               ; No predecessors!
  br label %97

97:                                               ; preds = %96, %82
  %98 = load ptr, ptr %17, align 8
  %99 = call i32 @zend_is_true(ptr noundef %98)
  %100 = icmp ne i32 %99, 0
  %101 = load ptr, ptr %14, align 8
  %102 = getelementptr inbounds %struct.xml_parser, ptr %101, i32 0, i32 24
  %103 = zext i1 %100 to i8
  store i8 %103, ptr %102, align 1
  br label %181

104:                                              ; preds = %62
  %105 = load ptr, ptr %17, align 8
  store ptr %105, ptr %7, align 8
  %106 = load ptr, ptr %7, align 8
  store ptr %106, ptr %6, align 8
  %107 = load ptr, ptr %6, align 8
  %108 = getelementptr inbounds %struct._zval_struct, ptr %107, i32 0, i32 1
  %109 = load i8, ptr %108, align 8
  %110 = zext i8 %109 to i32
  %111 = icmp eq i32 %110, 4
  br i1 %111, label %112, label %115

112:                                              ; preds = %104
  %113 = load ptr, ptr %7, align 8
  %114 = load i64, ptr %113, align 8
  br label %118

115:                                              ; preds = %104
  %116 = load ptr, ptr %7, align 8
  %117 = call i64 @zval_get_long_func(ptr noundef %116, i1 noundef zeroext false) #11
  br label %118

118:                                              ; preds = %115, %112
  %119 = phi i64 [ %114, %112 ], [ %117, %115 ]
  %120 = trunc i64 %119 to i32
  %121 = load ptr, ptr %14, align 8
  %122 = getelementptr inbounds %struct.xml_parser, ptr %121, i32 0, i32 17
  store i32 %120, ptr %122, align 4
  %123 = load ptr, ptr %14, align 8
  %124 = getelementptr inbounds %struct.xml_parser, ptr %123, i32 0, i32 17
  %125 = load i32, ptr %124, align 4
  %126 = icmp slt i32 %125, 0
  br i1 %126, label %127, label %136

127:                                              ; preds = %118
  call void (ptr, i32, ptr, ...) @php_error_docref(ptr noundef null, i32 noundef 2, ptr noundef @.str.46, i32 noundef 2147483647)
  %128 = load ptr, ptr %14, align 8
  %129 = getelementptr inbounds %struct.xml_parser, ptr %128, i32 0, i32 17
  store i32 0, ptr %129, align 4
  br label %130

130:                                              ; preds = %127
  br label %131

131:                                              ; preds = %130
  %132 = load ptr, ptr %13, align 8
  %133 = getelementptr inbounds %struct._zval_struct, ptr %132, i32 0, i32 1
  store i32 2, ptr %133, align 8
  br label %134

134:                                              ; preds = %131
  br label %187

135:                                              ; No predecessors!
  br label %136

136:                                              ; preds = %135, %118
  br label %181

137:                                              ; preds = %62
  %138 = load ptr, ptr %17, align 8
  store ptr %138, ptr %5, align 8
  %139 = load ptr, ptr %5, align 8
  store ptr %139, ptr %3, align 8
  %140 = load ptr, ptr %3, align 8
  %141 = getelementptr inbounds %struct._zval_struct, ptr %140, i32 0, i32 1
  %142 = load i8, ptr %141, align 8
  %143 = zext i8 %142 to i32
  %144 = icmp eq i32 %143, 6
  br i1 %144, label %145, label %146

145:                                              ; preds = %137
  store i1 true, ptr %4, align 1
  br label %149

146:                                              ; preds = %137
  %147 = load ptr, ptr %5, align 8
  %148 = call zeroext i1 @_try_convert_to_string(ptr noundef %147) #11
  store i1 %148, ptr %4, align 1
  br label %149

149:                                              ; preds = %146, %145
  %150 = load i1, ptr %4, align 1
  br i1 %150, label %156, label %151

151:                                              ; preds = %149
  br label %152

152:                                              ; preds = %151
  %153 = load ptr, ptr getelementptr inbounds (%struct._zend_executor_globals, ptr @executor_globals, i32 0, i32 50), align 8
  %154 = icmp ne ptr %153, null
  call void @llvm.assume(i1 %154)
  br label %187

155:                                              ; No predecessors!
  br label %156

156:                                              ; preds = %155, %149
  %157 = load ptr, ptr %17, align 8
  %158 = getelementptr inbounds %struct._zval_struct, ptr %157, i32 0, i32 0
  %159 = load ptr, ptr %158, align 8
  %160 = getelementptr inbounds %struct._zend_string, ptr %159, i32 0, i32 3
  %161 = getelementptr inbounds [1 x i8], ptr %160, i64 0, i64 0
  %162 = call ptr @xml_get_encoding(ptr noundef %161)
  store ptr %162, ptr %18, align 8
  %163 = load ptr, ptr %18, align 8
  %164 = icmp eq ptr %163, null
  br i1 %164, label %165, label %170

165:                                              ; preds = %156
  call void (i32, ptr, ...) @zend_argument_value_error(i32 noundef 3, ptr noundef @.str.47)
  br label %166

166:                                              ; preds = %165
  %167 = load ptr, ptr getelementptr inbounds (%struct._zend_executor_globals, ptr @executor_globals, i32 0, i32 50), align 8
  %168 = icmp ne ptr %167, null
  call void @llvm.assume(i1 %168)
  br label %187

169:                                              ; No predecessors!
  br label %170

170:                                              ; preds = %169, %156
  %171 = load ptr, ptr %18, align 8
  %172 = getelementptr inbounds %struct.xml_encoding, ptr %171, i32 0, i32 0
  %173 = load ptr, ptr %172, align 8
  %174 = load ptr, ptr %14, align 8
  %175 = getelementptr inbounds %struct.xml_parser, ptr %174, i32 0, i32 1
  store ptr %173, ptr %175, align 8
  br label %181

176:                                              ; preds = %62
  call void (i32, ptr, ...) @zend_argument_value_error(i32 noundef 2, ptr noundef @.str.48)
  br label %177

177:                                              ; preds = %176
  %178 = load ptr, ptr getelementptr inbounds (%struct._zend_executor_globals, ptr @executor_globals, i32 0, i32 50), align 8
  %179 = icmp ne ptr %178, null
  call void @llvm.assume(i1 %179)
  br label %187

180:                                              ; No predecessors!
  br label %181

181:                                              ; preds = %180, %170, %136, %97, %75, %68
  br label %182

182:                                              ; preds = %181
  br label %183

183:                                              ; preds = %182
  %184 = load ptr, ptr %13, align 8
  %185 = getelementptr inbounds %struct._zval_struct, ptr %184, i32 0, i32 1
  store i32 3, ptr %185, align 8
  br label %186

186:                                              ; preds = %183
  br label %187

187:                                              ; preds = %186, %177, %166, %152, %134, %93, %27
  ret void
}