; Function Attrs: nounwind uwtable
define hidden void @zif_xml_parser_set_option(ptr nocapture noundef readonly %0, ptr nocapture noundef writeonly %1) #0 {
  %3 = alloca ptr, align 8
  %4 = alloca i64, align 8
  %5 = alloca ptr, align 8
  %6 = getelementptr inbounds i8, ptr %0, i64 44
  %7 = load i32, ptr %6, align 4
  %8 = load ptr, ptr @xml_parser_ce, align 8
  %9 = call i32 (i32, ptr, ...) @zend_parse_parameters(i32 noundef %7, ptr noundef nonnull @.str.43, ptr noundef nonnull %3, ptr noundef %8, ptr noundef nonnull %4, ptr noundef nonnull %5) #16
  %10 = icmp eq i32 %9, -1
  br i1 %10, label %11, label %14

11:                                               ; preds = %2
  %12 = load ptr, ptr getelementptr inbounds (%struct._zend_executor_globals, ptr @executor_globals, i64 0, i32 50), align 8
  %13 = icmp ne ptr %12, null
  call void @llvm.assume(i1 %13)
  br label %95

14:                                               ; preds = %2
  %15 = load ptr, ptr %5, align 8
  %16 = getelementptr inbounds i8, ptr %15, i64 8
  %17 = load i8, ptr %16, align 8
  switch i8 %17, label %18 [
    i8 2, label %20
    i8 3, label %20
    i8 4, label %20
    i8 6, label %20
  ]

18:                                               ; preds = %14
  %19 = call ptr @zend_zval_type_name(ptr noundef nonnull %15) #16
  call void (ptr, i32, ptr, ...) @php_error_docref(ptr noundef null, i32 noundef 2, ptr noundef nonnull @.str.44, ptr noundef %19) #16
  br label %20

20:                                               ; preds = %14, %14, %14, %14, %18
  %21 = load ptr, ptr %3, align 8
  %22 = load ptr, ptr %21, align 8
  %23 = load i64, ptr %4, align 8
  switch i64 %23, label %90 [
    i64 1, label %24
    i64 4, label %30
    i64 5, label %36
    i64 3, label %49
    i64 2, label %65
  ]

24:                                               ; preds = %20
  %25 = load ptr, ptr %5, align 8
  %26 = call i32 @zend_is_true(ptr noundef %25) #16
  %27 = icmp ne i32 %26, 0
  %28 = getelementptr inbounds i8, ptr %22, i64 -12
  %29 = zext i1 %27 to i8
  store i8 %29, ptr %28, align 4
  br label %93

30:                                               ; preds = %20
  %31 = load ptr, ptr %5, align 8
  %32 = call i32 @zend_is_true(ptr noundef %31) #16
  %33 = icmp ne i32 %32, 0
  %34 = getelementptr inbounds i8, ptr %22, i64 -15
  %35 = zext i1 %33 to i8
  store i8 %35, ptr %34, align 1
  br label %93

36:                                               ; preds = %20
  %37 = getelementptr inbounds i8, ptr %22, i64 -14
  %38 = load i8, ptr %37, align 2
  %39 = and i8 %38, 1
  %.not30 = icmp eq i8 %39, 0
  br i1 %.not30, label %43, label %40

40:                                               ; preds = %36
  call void (ptr, ptr, ...) @zend_throw_error(ptr noundef null, ptr noundef nonnull @.str.45) #16
  %41 = load ptr, ptr getelementptr inbounds (%struct._zend_executor_globals, ptr @executor_globals, i64 0, i32 50), align 8
  %42 = icmp ne ptr %41, null
  call void @llvm.assume(i1 %42)
  br label %95

43:                                               ; preds = %36
  %44 = load ptr, ptr %5, align 8
  %45 = call i32 @zend_is_true(ptr noundef %44) #16
  %46 = icmp ne i32 %45, 0
  %47 = getelementptr inbounds i8, ptr %22, i64 -13
  %48 = zext i1 %46 to i8
  store i8 %48, ptr %47, align 1
  br label %93

49:                                               ; preds = %20
  %50 = load ptr, ptr %5, align 8
  %51 = getelementptr inbounds i8, ptr %50, i64 8
  %52 = load i8, ptr %51, align 8
  %53 = icmp eq i8 %52, 4
  br i1 %53, label %54, label %56

54:                                               ; preds = %49
  %55 = load i64, ptr %50, align 8
  br label %58

56:                                               ; preds = %49
  %57 = call i64 @zval_get_long_func(ptr noundef nonnull %50, i1 noundef zeroext false) #16
  br label %58

58:                                               ; preds = %56, %54
  %59 = phi i64 [ %55, %54 ], [ %57, %56 ]
  %60 = trunc i64 %59 to i32
  %61 = getelementptr inbounds i8, ptr %22, i64 -44
  store i32 %60, ptr %61, align 4
  %62 = icmp slt i32 %60, 0
  br i1 %62, label %63, label %93

63:                                               ; preds = %58
  call void (ptr, i32, ptr, ...) @php_error_docref(ptr noundef null, i32 noundef 2, ptr noundef nonnull @.str.46, i32 noundef 2147483647) #16
  store i32 0, ptr %61, align 4
  %64 = getelementptr inbounds i8, ptr %1, i64 8
  store i32 2, ptr %64, align 8
  br label %95

65:                                               ; preds = %20
  %66 = load ptr, ptr %5, align 8
  %67 = getelementptr inbounds i8, ptr %66, i64 8
  %68 = load i8, ptr %67, align 8
  %69 = icmp eq i8 %68, 6
  br i1 %69, label %.critedge, label %70

70:                                               ; preds = %65
  %71 = call zeroext i1 @_try_convert_to_string(ptr noundef nonnull %66) #16
  br i1 %71, label %..critedge_crit_edge, label %72

..critedge_crit_edge:                             ; preds = %70
  %.pre = load ptr, ptr %5, align 8
  br label %.critedge

72:                                               ; preds = %70
  %73 = load ptr, ptr getelementptr inbounds (%struct._zend_executor_globals, ptr @executor_globals, i64 0, i32 50), align 8
  %74 = icmp ne ptr %73, null
  call void @llvm.assume(i1 %74)
  br label %95

.critedge:                                        ; preds = %..critedge_crit_edge, %65
  %75 = phi ptr [ %.pre, %..critedge_crit_edge ], [ %66, %65 ]
  %76 = load ptr, ptr %75, align 8
  %77 = getelementptr inbounds i8, ptr %76, i64 24
  br label %78

78:                                               ; preds = %82, %.critedge
  %79 = phi ptr [ @.str.3, %.critedge ], [ %84, %82 ]
  %.09.i = phi ptr [ @xml_encodings, %.critedge ], [ %83, %82 ]
  %80 = call i32 @strcasecmp(ptr noundef nonnull %77, ptr noundef nonnull %79) #19
  %81 = icmp eq i32 %80, 0
  br i1 %81, label %xml_get_encoding.exit, label %82

82:                                               ; preds = %78
  %83 = getelementptr inbounds i8, ptr %.09.i, i64 24
  %84 = load ptr, ptr %83, align 8
  %.not.i = icmp eq ptr %84, null
  br i1 %.not.i, label %85, label %78

85:                                               ; preds = %82
  call void (i32, ptr, ...) @zend_argument_value_error(i32 noundef 3, ptr noundef nonnull @.str.47) #16
  %86 = load ptr, ptr getelementptr inbounds (%struct._zend_executor_globals, ptr @executor_globals, i64 0, i32 50), align 8
  %87 = icmp ne ptr %86, null
  call void @llvm.assume(i1 %87)
  br label %95

xml_get_encoding.exit:                            ; preds = %78
  %88 = load ptr, ptr %.09.i, align 8
  %89 = getelementptr inbounds i8, ptr %22, i64 -512
  store ptr %88, ptr %89, align 8
  br label %93

90:                                               ; preds = %20
  call void (i32, ptr, ...) @zend_argument_value_error(i32 noundef 2, ptr noundef nonnull @.str.48) #16
  %91 = load ptr, ptr getelementptr inbounds (%struct._zend_executor_globals, ptr @executor_globals, i64 0, i32 50), align 8
  %92 = icmp ne ptr %91, null
  call void @llvm.assume(i1 %92)
  br label %95

93:                                               ; preds = %58, %xml_get_encoding.exit, %43, %30, %24
  %94 = getelementptr inbounds i8, ptr %1, i64 8
  store i32 3, ptr %94, align 8
  br label %95

95:                                               ; preds = %93, %90, %85, %72, %63, %40, %11
  ret void
}